target datalayout = "e-m:e-p270:32:32-p271:32:32-p272:64:64-i64:64-i128:128-f80:128-n8:16:32:64-S128"
target triple = "x86_64-pc-linux-gnu"

%class.SyntaxLineEdit = type <{ %class.QLineEdit, ptr, ptr, i32, [4 x i8], %class.QString, %class.QString, %class.QString, %class.QString, %class.QString, i8, [7 x i8] }>
%class.QLineEdit = type { %class.QWidget }
%class.QWidget = type { %class.QObject, %class.QPaintDevice.base, ptr }
%class.QObject = type { ptr, %class.QScopedPointer }
%class.QScopedPointer = type { ptr }
%class.QPaintDevice.base = type <{ ptr, i16 }>
%class.QString = type { %struct.QArrayDataPointer }
%struct.QArrayDataPointer = type { ptr, ptr, i64 }
%class.QBasicAtomicInteger = type { %"struct.std::atomic" }
%"struct.std::atomic" = type { %"struct.std::__atomic_base" }
%"struct.std::__atomic_base" = type { i32 }
%struct.QArrayData = type { %class.QBasicAtomicInteger, %class.QFlags.13, i64 }
%class.QFlags.13 = type { i32 }

; Function Attrs: mustprogress nounwind null_pointer_is_valid sspstrong uwtable
define linkonce_odr noundef i32 @_ZNSt13__atomic_baseIiEppEv(ptr noundef align 4 dereferenceable_or_null(4) %0) #3 comdat align 2 {
  %2 = alloca ptr, align 8
  %3 = alloca i32, align 4
  %4 = alloca i32, align 4
  store ptr %0, ptr %2, align 8
  %5 = load ptr, ptr %2, align 8
  %6 = getelementptr inbounds nuw %"struct.std::__atomic_base", ptr %5, i32 0, i32 0
  store i32 1, ptr %3, align 4
  %7 = load i32, ptr %3, align 4
  %8 = atomicrmw add ptr %6, i32 %7 seq_cst, align 4
  %9 = add i32 %8, %7
  store i32 %9, ptr %4, align 4
  %10 = load i32, ptr %4, align 4
  ret i32 %10
}

; Function Attrs: noinline noreturn nounwind null_pointer_is_valid sspstrong uwtable
define linkonce_odr hidden void @__clang_call_terminate(ptr noundef %0) #9 comdat {
  %2 = call ptr @__cxa_begin_catch(ptr %0) #19
  call void @_ZSt9terminatev() #23
  unreachable
}

; Function Attrs: inlinehint mustprogress nounwind null_pointer_is_valid sspstrong uwtable
define linkonce_odr noundef zeroext i1 @_ZN10QAtomicOpsIiE3refIiEEbRSt6atomicIT_E(ptr noundef align 4 dereferenceable(4) %0) #2 comdat align 2 {
  %2 = alloca ptr, align 8
  store ptr %0, ptr %2, align 8
  %3 = load ptr, ptr %2, align 8
  %4 = call noundef i32 @_ZNSt13__atomic_baseIiEppEv(ptr noundef align 4 dereferenceable_or_null(4) %3) #19
  %5 = icmp ne i32 %4, 0
  ret i1 %5
}

; Function Attrs: mustprogress nounwind null_pointer_is_valid sspstrong uwtable
define linkonce_odr noundef zeroext i1 @_ZN19QBasicAtomicIntegerIiE3refEv(ptr noundef align 4 dereferenceable_or_null(4) %0) #3 comdat align 2 personality ptr @__gxx_personality_v0 {
  %2 = alloca ptr, align 8
  store ptr %0, ptr %2, align 8
  %3 = load ptr, ptr %2, align 8
  %4 = getelementptr inbounds nuw %class.QBasicAtomicInteger, ptr %3, i32 0, i32 0
  %5 = invoke noundef zeroext i1 @_ZN10QAtomicOpsIiE3refIiEEbRSt6atomicIT_E(ptr noundef align 4 dereferenceable(4) %4)
          to label %6 unwind label %7

6:                                                ; preds = %1
  ret i1 %5

7:                                                ; preds = %1
  %8 = landingpad { ptr, i32 }
          catch ptr null
  %9 = extractvalue { ptr, i32 } %8, 0
  call void @__clang_call_terminate(ptr %9) #23
  unreachable
}

; Function Attrs: mustprogress nounwind null_pointer_is_valid sspstrong uwtable
define linkonce_odr noundef zeroext i1 @_ZN10QArrayData3refEv(ptr noundef align 8 dereferenceable_or_null(16) %0) #3 comdat align 2 {
  %2 = alloca ptr, align 8
  store ptr %0, ptr %2, align 8
  %3 = load ptr, ptr %2, align 8
  %4 = getelementptr inbounds nuw %struct.QArrayData, ptr %3, i32 0, i32 0
  %5 = call noundef zeroext i1 @_ZN19QBasicAtomicIntegerIiE3refEv(ptr noundef align 4 dereferenceable_or_null(4) %4) #19
  ret i1 true
}

; Function Attrs: mustprogress nounwind null_pointer_is_valid sspstrong uwtable
define linkonce_odr void @_ZN17QArrayDataPointerIDsE3refEv(ptr noundef align 8 dereferenceable_or_null(24) %0) #3 comdat align 2 {
  %2 = alloca ptr, align 8
  store ptr %0, ptr %2, align 8
  %3 = load ptr, ptr %2, align 8
  %4 = getelementptr inbounds nuw %struct.QArrayDataPointer, ptr %3, i32 0, i32 0
  %5 = load ptr, ptr %4, align 8
  %6 = icmp ne ptr %5, null
  br i1 %6, label %7, label %11

7:                                                ; preds = %1
  %8 = getelementptr inbounds nuw %struct.QArrayDataPointer, ptr %3, i32 0, i32 0
  %9 = load ptr, ptr %8, align 8
  %10 = call noundef zeroext i1 @_ZN10QArrayData3refEv(ptr noundef align 8 dereferenceable_or_null(16) %9) #19
  br label %11

11:                                               ; preds = %7, %1
  ret void
}

; Function Attrs: mustprogress nounwind null_pointer_is_valid sspstrong uwtable
define linkonce_odr void @_ZN17QArrayDataPointerIDsEC2ERKS0_(ptr noundef align 8 dereferenceable_or_null(24) %0, ptr noundef align 8 dereferenceable(24) %1) unnamed_addr #3 comdat align 2 {
  %3 = alloca ptr, align 8
  %4 = alloca ptr, align 8
  store ptr %0, ptr %3, align 8
  store ptr %1, ptr %4, align 8
  %5 = load ptr, ptr %3, align 8
  %6 = getelementptr inbounds nuw %struct.QArrayDataPointer, ptr %5, i32 0, i32 0
  %7 = load ptr, ptr %4, align 8
  %8 = getelementptr inbounds nuw %struct.QArrayDataPointer, ptr %7, i32 0, i32 0
  %9 = load ptr, ptr %8, align 8
  store ptr %9, ptr %6, align 8
  %10 = getelementptr inbounds nuw %struct.QArrayDataPointer, ptr %5, i32 0, i32 1
  %11 = load ptr, ptr %4, align 8
  %12 = getelementptr inbounds nuw %struct.QArrayDataPointer, ptr %11, i32 0, i32 1
  %13 = load ptr, ptr %12, align 8
  store ptr %13, ptr %10, align 8
  %14 = getelementptr inbounds nuw %struct.QArrayDataPointer, ptr %5, i32 0, i32 2
  %15 = load ptr, ptr %4, align 8
  %16 = getelementptr inbounds nuw %struct.QArrayDataPointer, ptr %15, i32 0, i32 2
  %17 = load i64, ptr %16, align 8
  store i64 %17, ptr %14, align 8
  call void @_ZN17QArrayDataPointerIDsE3refEv(ptr noundef align 8 dereferenceable_or_null(24) %5) #19
  ret void
}

; Function Attrs: inlinehint mustprogress nounwind null_pointer_is_valid sspstrong uwtable
define linkonce_odr void @_ZN7QStringC2ERKS_(ptr noundef align 8 dereferenceable_or_null(24) %0, ptr noundef align 8 dereferenceable(24) %1) unnamed_addr #2 comdat align 2 {
  %3 = alloca ptr, align 8
  %4 = alloca ptr, align 8
  store ptr %0, ptr %3, align 8
  store ptr %1, ptr %4, align 8
  %5 = load ptr, ptr %3, align 8
  %6 = getelementptr inbounds nuw %class.QString, ptr %5, i32 0, i32 0
  %7 = load ptr, ptr %4, align 8
  %8 = getelementptr inbounds nuw %class.QString, ptr %7, i32 0, i32 0
  call void @_ZN17QArrayDataPointerIDsEC2ERKS0_(ptr noundef align 8 dereferenceable_or_null(24) %6, ptr noundef align 8 dereferenceable(24) %8) #19
  ret void
}

; Function Attrs: mustprogress nounwind null_pointer_is_valid sspstrong uwtable
define void @_ZN14SyntaxLineEdit22syntaxErrorMessageFullEv(ptr dead_on_unwind noalias writable sret(%class.QString) align 8 %0, ptr noundef align 8 dereferenceable_or_null(185) %1) #3 align 2 {
  %3 = alloca ptr, align 8
  %4 = alloca ptr, align 8
  store ptr %0, ptr %3, align 8
  store ptr %1, ptr %4, align 8
  %5 = load ptr, ptr %4, align 8
  %6 = getelementptr inbounds nuw %class.SyntaxLineEdit, ptr %5, i32 0, i32 8
  call void @_ZN7QStringC2ERKS_(ptr noundef align 8 dereferenceable_or_null(24) %0, ptr noundef align 8 dereferenceable(24) %6) #19
  ret void
}